target datalayout = "e-m:e-p270:32:32-p271:32:32-p272:64:64-i64:64-i128:128-f80:128-n8:16:32:64-S128"
target triple = "x86_64-pc-linux-gnu"

%"class.llvm::StringRef" = type { ptr, i64 }
%"class.std::__cxx11::basic_string" = type { %"struct.std::__cxx11::basic_string<char>::_Alloc_hider", i64, %union.anon }
%"struct.std::__cxx11::basic_string<char>::_Alloc_hider" = type { ptr }
%union.anon = type { i64, [8 x i8] }
%"class.llvm::SmallVectorBase.22" = type { ptr, i32, i32 }
%"class.clang::StreamingDiagnostic::DiagStorageAllocator" = type <{ [16 x %"struct.clang::DiagnosticStorage"], [16 x ptr], i32, [4 x i8] }>
%"struct.clang::DiagnosticStorage" = type { i8, [10 x i8], [10 x i64], [10 x %"class.std::__cxx11::basic_string"], %"class.llvm::SmallVector.245", %"class.llvm::SmallVector.250" }
%"class.llvm::SmallVector.245" = type { %"class.llvm::SmallVectorImpl.246", %"struct.llvm::SmallVectorStorage.249" }
%"class.llvm::SmallVectorImpl.246" = type { %"class.llvm::SmallVectorTemplateBase.247" }
%"class.llvm::SmallVectorTemplateBase.247" = type { %"class.llvm::SmallVectorTemplateCommon.248" }
%"class.llvm::SmallVectorTemplateCommon.248" = type { %"class.llvm::SmallVectorBase.22" }
%"struct.llvm::SmallVectorStorage.249" = type { [96 x i8] }
%"class.llvm::SmallVector.250" = type { %"class.llvm::SmallVectorImpl.251", %"struct.llvm::SmallVectorStorage.254" }
%"class.llvm::SmallVectorImpl.251" = type { %"class.llvm::SmallVectorTemplateBase.252" }
%"class.llvm::SmallVectorTemplateBase.252" = type { %"class.llvm::SmallVectorTemplateCommon.253" }
%"class.llvm::SmallVectorTemplateCommon.253" = type { %"class.llvm::SmallVectorBase.22" }
%"struct.llvm::SmallVectorStorage.254" = type { [384 x i8] }
%"class.clang::SourceLocation" = type { i32 }
%"class.clang::SourceRange" = type { %"class.clang::SourceLocation", %"class.clang::SourceLocation" }
%"class.clang::Qualifiers" = type { i64 }
%"class.clang::DiagnosticBuilder" = type <{ %"class.clang::StreamingDiagnostic", ptr, i8, i8, [6 x i8] }>
%"class.clang::StreamingDiagnostic" = type { ptr, ptr }
%"class.clang::CharSourceRange" = type <{ %"class.clang::SourceRange", i8, [3 x i8] }>

@.str.131 = private unnamed_addr constant [12 x i8] c"'auto' type\00", align 1

; Function Attrs: mustprogress nounwind uwtable
define linkonce_odr hidden void @_ZN5clang19StreamingDiagnostic20DiagStorageAllocator10DeallocateEPNS_17DiagnosticStorageE(ptr noundef nonnull align 8 dereferenceable(14980) %0, ptr noundef %1) #0 comdat align 2 {
  %3 = alloca ptr, align 8
  %4 = alloca ptr, align 8
  store ptr %0, ptr %3, align 8
  store ptr %1, ptr %4, align 8
  %5 = load ptr, ptr %3, align 8
  %6 = load ptr, ptr %4, align 8
  %7 = getelementptr inbounds nuw %"class.clang::StreamingDiagnostic::DiagStorageAllocator", ptr %5, i32 0, i32 0
  %8 = getelementptr inbounds [16 x %"struct.clang::DiagnosticStorage"], ptr %7, i64 0, i64 0
  %9 = icmp uge ptr %6, %8
  br i1 %9, label %10, label %24

10:                                               ; preds = %2
  %11 = load ptr, ptr %4, align 8
  %12 = getelementptr inbounds nuw %"class.clang::StreamingDiagnostic::DiagStorageAllocator", ptr %5, i32 0, i32 0
  %13 = getelementptr inbounds [16 x %"struct.clang::DiagnosticStorage"], ptr %12, i64 0, i64 0
  %14 = getelementptr inbounds %"struct.clang::DiagnosticStorage", ptr %13, i64 16
  %15 = icmp ule ptr %11, %14
  br i1 %15, label %16, label %24

16:                                               ; preds = %10
  %17 = load ptr, ptr %4, align 8
  %18 = getelementptr inbounds nuw %"class.clang::StreamingDiagnostic::DiagStorageAllocator", ptr %5, i32 0, i32 1
  %19 = getelementptr inbounds nuw %"class.clang::StreamingDiagnostic::DiagStorageAllocator", ptr %5, i32 0, i32 2
  %20 = load i32, ptr %19, align 8
  %21 = add i32 %20, 1
  store i32 %21, ptr %19, align 8
  %22 = zext i32 %20 to i64
  %23 = getelementptr inbounds [16 x ptr], ptr %18, i64 0, i64 %22
  store ptr %17, ptr %23, align 8
  br label %28

24:                                               ; preds = %10, %2
  %25 = load ptr, ptr %4, align 8
  %26 = icmp eq ptr %25, null
  br i1 %26, label %28, label %27

27:                                               ; preds = %24
  call void @_ZN5clang17DiagnosticStorageD2Ev(ptr noundef nonnull align 8 dereferenceable(928) %25) #14
  call void @_ZdlPvm(ptr noundef %25, i64 noundef 928) #15
  br label %28

28:                                               ; preds = %27, %24, %16
  ret void
}

; Function Attrs: mustprogress nounwind uwtable
define linkonce_odr hidden void @_ZN5clang19StreamingDiagnostic15freeStorageSlowEv(ptr noundef nonnull align 8 dereferenceable(16) %0) #0 comdat align 2 {
  %2 = alloca ptr, align 8
  store ptr %0, ptr %2, align 8
  %3 = load ptr, ptr %2, align 8
  %4 = getelementptr inbounds nuw %"class.clang::StreamingDiagnostic", ptr %3, i32 0, i32 1
  %5 = load ptr, ptr %4, align 8
  %6 = icmp ne ptr %5, null
  br i1 %6, label %8, label %7

7:                                                ; preds = %1
  br label %14

8:                                                ; preds = %1
  %9 = getelementptr inbounds nuw %"class.clang::StreamingDiagnostic", ptr %3, i32 0, i32 1
  %10 = load ptr, ptr %9, align 8
  %11 = getelementptr inbounds nuw %"class.clang::StreamingDiagnostic", ptr %3, i32 0, i32 0
  %12 = load ptr, ptr %11, align 8
  call void @_ZN5clang19StreamingDiagnostic20DiagStorageAllocator10DeallocateEPNS_17DiagnosticStorageE(ptr noundef nonnull align 8 dereferenceable(14980) %10, ptr noundef %12)
  %13 = getelementptr inbounds nuw %"class.clang::StreamingDiagnostic", ptr %3, i32 0, i32 0
  store ptr null, ptr %13, align 8
  br label %14

14:                                               ; preds = %8, %7
  ret void
}

; Function Attrs: mustprogress nounwind uwtable
define linkonce_odr hidden void @_ZN5clang15CharSourceRangeC2ENS_11SourceRangeEb(ptr noundef nonnull align 4 dereferenceable(9) %0, i64 %1, i1 noundef zeroext %2) unnamed_addr #0 comdat align 2 {
  %4 = alloca %"class.clang::SourceRange", align 4
  %5 = alloca ptr, align 8
  %6 = alloca i8, align 1
  store i64 %1, ptr %4, align 4
  store ptr %0, ptr %5, align 8
  %7 = zext i1 %2 to i8
  store i8 %7, ptr %6, align 1
  %8 = load ptr, ptr %5, align 8
  %9 = getelementptr inbounds nuw %"class.clang::CharSourceRange", ptr %8, i32 0, i32 0
  call void @llvm.memcpy.p0.p0.i64(ptr align 4 %9, ptr align 4 %4, i64 8, i1 false)
  %10 = getelementptr inbounds nuw %"class.clang::CharSourceRange", ptr %8, i32 0, i32 1
  %11 = load i8, ptr %6, align 1
  %12 = trunc i8 %11 to i1
  %13 = zext i1 %12 to i8
  store i8 %13, ptr %10, align 4
  ret void
}

; Function Attrs: mustprogress nounwind uwtable
define linkonce_odr hidden void @_ZN5clang19StreamingDiagnostic11freeStorageEv(ptr noundef nonnull align 8 dereferenceable(16) %0) #0 comdat align 2 {
  %2 = alloca ptr, align 8
  store ptr %0, ptr %2, align 8
  %3 = load ptr, ptr %2, align 8
  %4 = getelementptr inbounds nuw %"class.clang::StreamingDiagnostic", ptr %3, i32 0, i32 0
  %5 = load ptr, ptr %4, align 8
  %6 = icmp ne ptr %5, null
  br i1 %6, label %8, label %7

7:                                                ; preds = %1
  br label %9

8:                                                ; preds = %1
  call void @_ZN5clang19StreamingDiagnostic15freeStorageSlowEv(ptr noundef nonnull align 8 dereferenceable(16) %3)
  br label %9

9:                                                ; preds = %8, %7
  ret void
}

; Function Attrs: mustprogress nounwind uwtable
define linkonce_odr hidden void @_ZNK5clang17DiagnosticBuilder5ClearEv(ptr noundef nonnull align 8 dereferenceable(26) %0) #0 comdat align 2 {
  %2 = alloca ptr, align 8
  store ptr %0, ptr %2, align 8
  %3 = load ptr, ptr %2, align 8
  %4 = getelementptr inbounds nuw %"class.clang::DiagnosticBuilder", ptr %3, i32 0, i32 1
  store ptr null, ptr %4, align 8
  %5 = getelementptr inbounds nuw %"class.clang::DiagnosticBuilder", ptr %3, i32 0, i32 2
  store i8 0, ptr %5, align 8
  %6 = getelementptr inbounds nuw %"class.clang::DiagnosticBuilder", ptr %3, i32 0, i32 3
  store i8 0, ptr %6, align 1
  ret void
}

; Function Attrs: mustprogress nounwind uwtable
define linkonce_odr hidden noundef zeroext i1 @_ZNK5clang17DiagnosticBuilder8isActiveEv(ptr noundef nonnull align 8 dereferenceable(26) %0) #0 comdat align 2 {
  %2 = alloca ptr, align 8
  store ptr %0, ptr %2, align 8
  %3 = load ptr, ptr %2, align 8
  %4 = getelementptr inbounds nuw %"class.clang::DiagnosticBuilder", ptr %3, i32 0, i32 2
  %5 = load i8, ptr %4, align 8
  %6 = trunc i8 %5 to i1
  ret i1 %6
}

; Function Attrs: mustprogress nounwind uwtable
define linkonce_odr hidden { i64, i8 } @_ZN5clang15CharSourceRange13getTokenRangeENS_11SourceRangeE(i64 %0) #0 comdat align 2 {
  %2 = alloca %"class.clang::CharSourceRange", align 4
  %3 = alloca %"class.clang::SourceRange", align 4
  %4 = alloca %"class.clang::SourceRange", align 4
  %5 = alloca { i64, i8 }, align 8
  store i64 %0, ptr %3, align 4
  call void @llvm.memcpy.p0.p0.i64(ptr align 4 %4, ptr align 4 %3, i64 8, i1 false)
  %6 = load i64, ptr %4, align 4
  call void @_ZN5clang15CharSourceRangeC2ENS_11SourceRangeEb(ptr noundef nonnull align 4 dereferenceable(9) %2, i64 %6, i1 noundef zeroext true)
  call void @llvm.memcpy.p0.p0.i64(ptr align 8 %5, ptr align 4 %2, i64 12, i1 false)
  %7 = load { i64, i8 }, ptr %5, align 8
  ret { i64, i8 } %7
}

; Function Attrs: mustprogress nounwind uwtable
define linkonce_odr hidden void @_ZN5clang19StreamingDiagnosticD2Ev(ptr noundef nonnull align 8 dereferenceable(16) %0) unnamed_addr #0 comdat align 2 {
  %2 = alloca ptr, align 8
  store ptr %0, ptr %2, align 8
  %3 = load ptr, ptr %2, align 8
  call void @_ZN5clang19StreamingDiagnostic11freeStorageEv(ptr noundef nonnull align 8 dereferenceable(16) %3)
  ret void
}

; Function Attrs: mustprogress nounwind uwtable
define linkonce_odr hidden noundef zeroext i1 @_ZN5clang17DiagnosticBuilder4EmitEv(ptr noundef nonnull align 8 dereferenceable(26) %0) #0 comdat align 2 {
  %2 = alloca i1, align 1
  %3 = alloca ptr, align 8
  %4 = alloca i8, align 1
  store ptr %0, ptr %3, align 8
  %5 = load ptr, ptr %3, align 8
  %6 = call noundef zeroext i1 @_ZNK5clang17DiagnosticBuilder8isActiveEv(ptr noundef nonnull align 8 dereferenceable(26) %5)
  br i1 %6, label %8, label %7

7:                                                ; preds = %1
  store i1 false, ptr %2, align 1
  br label %18

8:                                                ; preds = %1
  %9 = getelementptr inbounds nuw %"class.clang::DiagnosticBuilder", ptr %5, i32 0, i32 1
  %10 = load ptr, ptr %9, align 8
  %11 = getelementptr inbounds nuw %"class.clang::DiagnosticBuilder", ptr %5, i32 0, i32 3
  %12 = load i8, ptr %11, align 1
  %13 = trunc i8 %12 to i1
  %14 = call noundef zeroext i1 @_ZN5clang17DiagnosticsEngine21EmitCurrentDiagnosticEb(ptr noundef nonnull align 8 dereferenceable(1304) %10, i1 noundef zeroext %13)
  %15 = zext i1 %14 to i8
  store i8 %15, ptr %4, align 1
  call void @_ZNK5clang17DiagnosticBuilder5ClearEv(ptr noundef nonnull align 8 dereferenceable(26) %5)
  %16 = load i8, ptr %4, align 1
  %17 = trunc i8 %16 to i1
  store i1 %17, ptr %2, align 1
  br label %18

18:                                               ; preds = %8, %7
  %19 = load i1, ptr %2, align 1
  ret i1 %19
}

; Function Attrs: mustprogress nounwind uwtable
define linkonce_odr hidden noundef nonnull align 8 dereferenceable(16) ptr @_ZN5clanglsERKNS_19StreamingDiagnosticENS_11SourceRangeE(ptr noundef nonnull align 8 dereferenceable(16) %0, i64 %1) #0 comdat {
  %3 = alloca %"class.clang::SourceRange", align 4
  %4 = alloca ptr, align 8
  %5 = alloca %"class.clang::CharSourceRange", align 4
  %6 = alloca %"class.clang::SourceRange", align 4
  %7 = alloca { i64, i8 }, align 8
  store i64 %1, ptr %3, align 4
  store ptr %0, ptr %4, align 8
  %8 = load ptr, ptr %4, align 8
  call void @llvm.memcpy.p0.p0.i64(ptr align 4 %6, ptr align 4 %3, i64 8, i1 false)
  %9 = load i64, ptr %6, align 4
  %10 = call { i64, i8 } @_ZN5clang15CharSourceRange13getTokenRangeENS_11SourceRangeE(i64 %9)
  store { i64, i8 } %10, ptr %7, align 8
  call void @llvm.memcpy.p0.p0.i64(ptr align 4 %5, ptr align 8 %7, i64 9, i1 false)
  call void @_ZNK5clang19StreamingDiagnostic14AddSourceRangeERKNS_15CharSourceRangeE(ptr noundef nonnull align 8 dereferenceable(16) %8, ptr noundef nonnull align 4 dereferenceable(9) %5)
  %11 = load ptr, ptr %4, align 8
  ret ptr %11
}

; Function Attrs: mustprogress nounwind uwtable
define linkonce_odr hidden noundef i64 @_ZNSt11char_traitsIcE6lengthEPKc(ptr noundef %0) #0 comdat align 2 {
  %2 = alloca ptr, align 8
  store ptr %0, ptr %2, align 8
  %3 = load ptr, ptr %2, align 8
  %4 = call i64 @strlen(ptr noundef %3) #14
  ret i64 %4
}

; Function Attrs: mustprogress nounwind uwtable
define linkonce_odr hidden void @_ZN5clang17DiagnosticBuilderD2Ev(ptr noundef nonnull align 8 dereferenceable(26) %0) unnamed_addr #0 comdat align 2 {
  %2 = alloca ptr, align 8
  store ptr %0, ptr %2, align 8
  %3 = load ptr, ptr %2, align 8
  %4 = call noundef zeroext i1 @_ZN5clang17DiagnosticBuilder4EmitEv(ptr noundef nonnull align 8 dereferenceable(26) %3)
  call void @_ZN5clang19StreamingDiagnosticD2Ev(ptr noundef nonnull align 8 dereferenceable(16) %3) #14
  ret void
}

; Function Attrs: mustprogress nounwind uwtable
define linkonce_odr hidden noundef nonnull align 8 dereferenceable(26) ptr @_ZNK5clang17DiagnosticBuilderlsINS_11SourceRangeEEERKS0_RKT_(ptr noundef nonnull align 8 dereferenceable(26) %0, ptr noundef nonnull align 4 dereferenceable(8) %1) #0 comdat align 2 {
  %3 = alloca ptr, align 8
  %4 = alloca ptr, align 8
  %5 = alloca ptr, align 8
  %6 = alloca %"class.clang::SourceRange", align 4
  store ptr %0, ptr %3, align 8
  store ptr %1, ptr %4, align 8
  %7 = load ptr, ptr %3, align 8
  store ptr %7, ptr %5, align 8
  %8 = load ptr, ptr %5, align 8
  %9 = load ptr, ptr %4, align 8
  call void @llvm.memcpy.p0.p0.i64(ptr align 4 %6, ptr align 4 %9, i64 8, i1 false)
  %10 = load i64, ptr %6, align 4
  %11 = call noundef nonnull align 8 dereferenceable(16) ptr @_ZN5clanglsERKNS_19StreamingDiagnosticENS_11SourceRangeE(ptr noundef nonnull align 8 dereferenceable(16) %8, i64 %10)
  ret ptr %7
}

; Function Attrs: mustprogress nounwind uwtable
define linkonce_odr hidden void @_ZN4llvm9StringRefC2EPKc(ptr noundef nonnull align 8 dereferenceable(16) %0, ptr noundef %1) unnamed_addr #0 comdat align 2 {
  %3 = alloca ptr, align 8
  %4 = alloca ptr, align 8
  store ptr %0, ptr %3, align 8
  store ptr %1, ptr %4, align 8
  %5 = load ptr, ptr %3, align 8
  %6 = getelementptr inbounds nuw %"class.llvm::StringRef", ptr %5, i32 0, i32 0
  %7 = load ptr, ptr %4, align 8
  store ptr %7, ptr %6, align 8
  %8 = getelementptr inbounds nuw %"class.llvm::StringRef", ptr %5, i32 0, i32 1
  %9 = load ptr, ptr %4, align 8
  %10 = icmp ne ptr %9, null
  br i1 %10, label %11, label %14

11:                                               ; preds = %2
  %12 = load ptr, ptr %4, align 8
  %13 = call noundef i64 @_ZNSt11char_traitsIcE6lengthEPKc(ptr noundef %12)
  br label %15

14:                                               ; preds = %2
  br label %15

15:                                               ; preds = %14, %11
  %16 = phi i64 [ %13, %11 ], [ 0, %14 ]
  store i64 %16, ptr %8, align 8
  ret void
}

; Function Attrs: mustprogress nounwind uwtable
define linkonce_odr hidden i32 @_ZNK5clang11SourceRange8getBeginEv(ptr noundef nonnull align 4 dereferenceable(8) %0) #0 comdat align 2 {
  %2 = alloca %"class.clang::SourceLocation", align 4
  %3 = alloca ptr, align 8
  store ptr %0, ptr %3, align 8
  %4 = load ptr, ptr %3, align 8
  %5 = getelementptr inbounds nuw %"class.clang::SourceRange", ptr %4, i32 0, i32 0
  call void @llvm.memcpy.p0.p0.i64(ptr align 4 %2, ptr align 4 %5, i64 4, i1 false)
  %6 = getelementptr inbounds nuw %"class.clang::SourceLocation", ptr %2, i32 0, i32 0
  %7 = load i32, ptr %6, align 4
  ret i32 %7
}

; Function Attrs: mustprogress nounwind uwtable
define internal void @_ZN12_GLOBAL__N_123MicrosoftCXXNameMangler10mangleTypeEPKN5clang8AutoTypeENS1_10QualifiersENS1_11SourceRangeE(ptr noundef nonnull align 8 dereferenceable(593) %0, ptr noundef %1, i64 %2, i64 %3) #0 align 2 {
  %5 = alloca %"class.clang::Qualifiers", align 8
  %6 = alloca %"class.clang::SourceRange", align 4
  %7 = alloca ptr, align 8
  %8 = alloca ptr, align 8
  %9 = alloca %"class.clang::DiagnosticBuilder", align 8
  %10 = alloca %"class.clang::SourceLocation", align 4
  %11 = alloca %"class.llvm::StringRef", align 8
  %12 = getelementptr inbounds nuw %"class.clang::Qualifiers", ptr %5, i32 0, i32 0
  store i64 %2, ptr %12, align 8
  store i64 %3, ptr %6, align 4
  store ptr %0, ptr %7, align 8
  store ptr %1, ptr %8, align 8
  %13 = load ptr, ptr %7, align 8
  %14 = call i32 @_ZNK5clang11SourceRange8getBeginEv(ptr noundef nonnull align 4 dereferenceable(8) %6)
  %15 = getelementptr inbounds nuw %"class.clang::SourceLocation", ptr %10, i32 0, i32 0
  store i32 %14, ptr %15, align 4
  call void @_ZN4llvm9StringRefC2EPKc(ptr noundef nonnull align 8 dereferenceable(16) %11, ptr noundef @.str.131)
  %16 = getelementptr inbounds nuw %"class.clang::SourceLocation", ptr %10, i32 0, i32 0
  %17 = load i32, ptr %16, align 4
  %18 = getelementptr inbounds nuw { ptr, i64 }, ptr %11, i32 0, i32 0
  %19 = load ptr, ptr %18, align 8
  %20 = getelementptr inbounds nuw { ptr, i64 }, ptr %11, i32 0, i32 1
  %21 = load i64, ptr %20, align 8
  call void @_ZN12_GLOBAL__N_123MicrosoftCXXNameMangler5ErrorEN5clang14SourceLocationEN4llvm9StringRefE(ptr dead_on_unwind writable sret(%"class.clang::DiagnosticBuilder") align 8 %9, ptr noundef nonnull align 8 dereferenceable(593) %13, i32 %17, ptr %19, i64 %21)
  %22 = call noundef nonnull align 8 dereferenceable(26) ptr @_ZNK5clang17DiagnosticBuilderlsINS_11SourceRangeEEERKS0_RKT_(ptr noundef nonnull align 8 dereferenceable(26) %9, ptr noundef nonnull align 4 dereferenceable(8) %6)
  call void @_ZN5clang17DiagnosticBuilderD2Ev(ptr noundef nonnull align 8 dereferenceable(26) %9) #14
  ret void
}